target datalayout = "e-m:e-p270:32:32-p271:32:32-p272:64:64-i64:64-i128:128-f80:128-n8:16:32:64-S128"
target triple = "x86_64-pc-linux-gnu"

%"class.OpenColorIO_v2_5dev::(anonymous namespace)::BaseLut3DRenderer" = type { %"class.OpenColorIO_v2_5dev::OpCPU", ptr, i64, float, i32, ptr }
%"class.OpenColorIO_v2_5dev::OpCPU" = type { ptr }

; Function Attrs: mustprogress nounwind uwtable
define linkonce_odr hidden void @_ZN19OpenColorIO_v2_5dev5OpCPUD2Ev(ptr noundef nonnull align 8 dereferenceable(8) %0) unnamed_addr #5 comdat align 2 {
  %2 = alloca ptr, align 8
  store ptr %0, ptr %2, align 8, !tbaa !123
  ret void
}

; Function Attrs: mustprogress nounwind uwtable
define internal void @_ZN19OpenColorIO_v2_5dev12_GLOBAL__N_117BaseLut3DRendererD2Ev(ptr noundef nonnull align 8 dereferenceable(40) %0) unnamed_addr #5 align 2 personality ptr @__gxx_personality_v0 {
  %2 = alloca ptr, align 8
  store ptr %0, ptr %2, align 8, !tbaa !108
  %3 = load ptr, ptr %2, align 8
  store ptr getelementptr inbounds inrange(-16, 48) ({ [8 x ptr] }, ptr @_ZTVN19OpenColorIO_v2_5dev12_GLOBAL__N_117BaseLut3DRendererE, i32 0, i32 0, i32 2), ptr %3, align 8, !tbaa !84
  %4 = getelementptr inbounds nuw %"class.OpenColorIO_v2_5dev::(anonymous namespace)::BaseLut3DRenderer", ptr %3, i32 0, i32 1
  %5 = load ptr, ptr %4, align 8, !tbaa !110
  invoke void @_ZN19OpenColorIO_v2_5dev8Platform11AlignedFreeEPv(ptr noundef %5)
          to label %6 unwind label %7

6:                                                ; preds = %1
  call void @_ZN19OpenColorIO_v2_5dev5OpCPUD2Ev(ptr noundef nonnull align 8 dereferenceable(8) %3) #3
  ret void

7:                                                ; preds = %1
  %8 = landingpad { ptr, i32 }
          catch ptr null
  %9 = extractvalue { ptr, i32 } %8, 0
  call void @__clang_call_terminate(ptr %9) #26
  unreachable
}

; Function Attrs: mustprogress nounwind uwtable
define internal void @_ZN19OpenColorIO_v2_5dev12_GLOBAL__N_124Lut3DTetrahedralRendererD0Ev(ptr noundef nonnull align 8 dereferenceable(40) %0) unnamed_addr #5 align 2 {
  %2 = alloca ptr, align 8
  store ptr %0, ptr %2, align 8, !tbaa !77
  %3 = load ptr, ptr %2, align 8
  call void @_ZN19OpenColorIO_v2_5dev12_GLOBAL__N_117BaseLut3DRendererD2Ev(ptr noundef nonnull align 8 dereferenceable(40) %3) #3
  call void @_ZdlPvm(ptr noundef %3, i64 noundef 40) #28
  ret void
}